; Function Attrs: mustprogress nounwind willreturn uwtable
define internal void @fc_pair_destructor(ptr noundef captures(none) %0) #1 {
  %2 = getelementptr inbounds nuw i8, ptr %0, i64 144
  %3 = load ptr, ptr %2, align 8, !tbaa !3
  tail call void @free(ptr noundef %3) #15
  store ptr null, ptr %2, align 8, !tbaa !3
  %4 = getelementptr inbounds nuw i8, ptr %0, i64 152
  %5 = load ptr, ptr %4, align 8, !tbaa !15
  tail call void @free(ptr noundef %5) #15
  store ptr null, ptr %4, align 8, !tbaa !15
  ret void
}